; Function Attrs: nounwind uwtable
define hidden void @X11_MaximizeWindow(ptr noundef readonly captures(none) %0, ptr noundef %1) local_unnamed_addr #0 {
  %3 = getelementptr inbounds nuw i8, ptr %1, i64 392
  %4 = load ptr, ptr %3, align 8
  %5 = getelementptr inbounds nuw i8, ptr %4, i64 528
  %6 = load i32, ptr %5, align 8
  %7 = and i32 %6, 10
  %.not = icmp eq i32 %7, 0
  br i1 %.not, label %10, label %8

8:                                                ; preds = %2
  %9 = tail call zeroext i1 @SDL_SyncWindow_REAL(ptr noundef nonnull %1) #12
  br label %10

10:                                               ; preds = %8, %2
  %11 = getelementptr inbounds nuw i8, ptr %1, i64 72
  %12 = load i64, ptr %11, align 8
  %13 = and i64 %12, 1
  %.not8 = icmp eq i64 %13, 0
  br i1 %.not8, label %17, label %14

14:                                               ; preds = %10
  %15 = load ptr, ptr %3, align 8
  %16 = getelementptr inbounds nuw i8, ptr %15, i64 538
  store i8 1, ptr %16, align 2
  br label %24

17:                                               ; preds = %10
  %18 = and i64 %12, 64
  %.not9 = icmp eq i64 %18, 0
  br i1 %.not9, label %19, label %24

19:                                               ; preds = %17
  %20 = load ptr, ptr %3, align 8
  %21 = getelementptr inbounds nuw i8, ptr %20, i64 528
  %22 = load i32, ptr %21, align 8
  %23 = or i32 %22, 4
  store i32 %23, ptr %21, align 8
  tail call fastcc void @X11_SetWindowMaximized(ptr noundef %0, ptr noundef nonnull %1, i1 noundef zeroext true)
  br label %24

24:                                               ; preds = %19, %17, %14
  ret void
}